target datalayout = "e-m:e-p270:32:32-p271:32:32-p272:64:64-i64:64-i128:128-f80:128-n8:16:32:64-S128"
target triple = "x86_64-unknown-linux-gnu"

%"class.google::protobuf::io::ZeroCopyInputStream" = type { ptr }
%"class.google::protobuf::io::ConcatenatingInputStream" = type { %"class.google::protobuf::io::ZeroCopyInputStream", ptr, i32, i64 }

; Function Attrs: mustprogress uwtable
define noundef i64 @_ZNK6google8protobuf2io24ConcatenatingInputStream9ByteCountEv(ptr noundef nonnull align 8 dereferenceable(32) %this) unnamed_addr #4 align 2 {
entry:
  %retval = alloca i64, align 8
  %this.addr = alloca ptr, align 8
  store ptr %this, ptr %this.addr, align 8
  %this1 = load ptr, ptr %this.addr, align 8
  %stream_count_ = getelementptr inbounds %"class.google::protobuf::io::ConcatenatingInputStream", ptr %this1, i32 0, i32 2
  %0 = load i32, ptr %stream_count_, align 8
  %cmp = icmp eq i32 %0, 0
  br i1 %cmp, label %if.then, label %if.else

if.then:                                          ; preds = %entry
  %bytes_retired_ = getelementptr inbounds %"class.google::protobuf::io::ConcatenatingInputStream", ptr %this1, i32 0, i32 3
  %1 = load i64, ptr %bytes_retired_, align 8
  store i64 %1, ptr %retval, align 8
  br label %return

if.else:                                          ; preds = %entry
  %bytes_retired_2 = getelementptr inbounds %"class.google::protobuf::io::ConcatenatingInputStream", ptr %this1, i32 0, i32 3
  %2 = load i64, ptr %bytes_retired_2, align 8
  %streams_ = getelementptr inbounds %"class.google::protobuf::io::ConcatenatingInputStream", ptr %this1, i32 0, i32 1
  %3 = load ptr, ptr %streams_, align 8
  %arrayidx = getelementptr inbounds ptr, ptr %3, i64 0
  %4 = load ptr, ptr %arrayidx, align 8
  %vtable = load ptr, ptr %4, align 8
  %vfn = getelementptr inbounds ptr, ptr %vtable, i64 5
  %5 = load ptr, ptr %vfn, align 8
  %call = call noundef i64 %5(ptr noundef nonnull align 8 dereferenceable(8) %4)
  %add = add nsw i64 %2, %call
  store i64 %add, ptr %retval, align 8
  br label %return

return:                                           ; preds = %if.else, %if.then
  %6 = load i64, ptr %retval, align 8
  ret i64 %6
}