; Function Attrs: mustprogress uwtable
define noundef i64 @_ZNK6google8protobuf2io24ConcatenatingInputStream9ByteCountEv(ptr nocapture noundef nonnull readonly align 8 dereferenceable(32) %this) unnamed_addr #3 align 2 {
entry:
  %stream_count_ = getelementptr inbounds i8, ptr %this, i64 16
  %0 = load i32, ptr %stream_count_, align 8
  %cmp = icmp eq i32 %0, 0
  %bytes_retired_ = getelementptr inbounds i8, ptr %this, i64 24
  %1 = load i64, ptr %bytes_retired_, align 8
  br i1 %cmp, label %return, label %if.else

if.else:                                          ; preds = %entry
  %streams_ = getelementptr inbounds i8, ptr %this, i64 8
  %2 = load ptr, ptr %streams_, align 8
  %3 = load ptr, ptr %2, align 8
  %vtable = load ptr, ptr %3, align 8
  %vfn = getelementptr inbounds i8, ptr %vtable, i64 40
  %4 = load ptr, ptr %vfn, align 8
  %call = tail call noundef i64 %4(ptr noundef nonnull align 8 dereferenceable(8) %3)
  %add = add nsw i64 %call, %1
  br label %return

return:                                           ; preds = %entry, %if.else
  %retval.0 = phi i64 [ %add, %if.else ], [ %1, %entry ]
  ret i64 %retval.0
}